target datalayout = "e-m:e-p270:32:32-p271:32:32-p272:64:64-i64:64-i128:128-f80:128-n8:16:32:64-S128"
target triple = "x86_64-pc-linux-gnu"

%struct.pointf_s = type { double, double }

; Function Attrs: nounwind uwtable
define internal void @cylinder_vertices(ptr noundef %0, ptr noundef %1) #0 {
  %3 = alloca ptr, align 8
  %4 = alloca ptr, align 8
  %5 = alloca double, align 8
  %6 = alloca double, align 8
  %7 = alloca double, align 8
  store ptr %0, ptr %3, align 8, !tbaa !8
  store ptr %1, ptr %4, align 8, !tbaa !8
  call void @llvm.lifetime.start.p0(i64 8, ptr %5) #13
  %8 = load ptr, ptr %4, align 8, !tbaa !8
  %9 = getelementptr inbounds nuw %struct.pointf_s, ptr %8, i32 0, i32 0
  %10 = load double, ptr %9, align 8, !tbaa !21
  %11 = fdiv double %10, 2.000000e+00
  store double %11, ptr %5, align 8, !tbaa !17
  call void @llvm.lifetime.start.p0(i64 8, ptr %6) #13
  %12 = load ptr, ptr %4, align 8, !tbaa !8
  %13 = getelementptr inbounds nuw %struct.pointf_s, ptr %12, i32 0, i32 1
  %14 = load double, ptr %13, align 8, !tbaa !23
  %15 = fdiv double %14, 2.000000e+00
  store double %15, ptr %6, align 8, !tbaa !17
  call void @llvm.lifetime.start.p0(i64 8, ptr %7) #13
  %16 = load ptr, ptr %4, align 8, !tbaa !8
  %17 = getelementptr inbounds nuw %struct.pointf_s, ptr %16, i32 0, i32 1
  %18 = load double, ptr %17, align 8, !tbaa !23
  %19 = fdiv double %18, 1.100000e+01
  store double %19, ptr %7, align 8, !tbaa !17
  %20 = load double, ptr %5, align 8, !tbaa !17
  %21 = load ptr, ptr %3, align 8, !tbaa !8
  %22 = getelementptr inbounds %struct.pointf_s, ptr %21, i64 0
  %23 = getelementptr inbounds nuw %struct.pointf_s, ptr %22, i32 0, i32 0
  store double %20, ptr %23, align 8, !tbaa !21
  %24 = load double, ptr %6, align 8, !tbaa !17
  %25 = load double, ptr %7, align 8, !tbaa !17
  %26 = fsub double %24, %25
  %27 = load ptr, ptr %3, align 8, !tbaa !8
  %28 = getelementptr inbounds %struct.pointf_s, ptr %27, i64 0
  %29 = getelementptr inbounds nuw %struct.pointf_s, ptr %28, i32 0, i32 1
  store double %26, ptr %29, align 8, !tbaa !23
  %30 = load double, ptr %5, align 8, !tbaa !17
  %31 = load ptr, ptr %3, align 8, !tbaa !8
  %32 = getelementptr inbounds %struct.pointf_s, ptr %31, i64 1
  %33 = getelementptr inbounds nuw %struct.pointf_s, ptr %32, i32 0, i32 0
  store double %30, ptr %33, align 8, !tbaa !21
  %34 = load double, ptr %6, align 8, !tbaa !17
  %35 = load double, ptr %7, align 8, !tbaa !17
  %36 = call double @llvm.fmuladd.f64(double 0xBFDCAF922962CFD8, double %35, double %34)
  %37 = load ptr, ptr %3, align 8, !tbaa !8
  %38 = getelementptr inbounds %struct.pointf_s, ptr %37, i64 1
  %39 = getelementptr inbounds nuw %struct.pointf_s, ptr %38, i32 0, i32 1
  store double %36, ptr %39, align 8, !tbaa !23
  %40 = load double, ptr %5, align 8, !tbaa !17
  %41 = fmul double 5.517840e-01, %40
  %42 = load ptr, ptr %3, align 8, !tbaa !8
  %43 = getelementptr inbounds %struct.pointf_s, ptr %42, i64 2
  %44 = getelementptr inbounds nuw %struct.pointf_s, ptr %43, i32 0, i32 0
  store double %41, ptr %44, align 8, !tbaa !21
  %45 = load double, ptr %6, align 8, !tbaa !17
  %46 = load ptr, ptr %3, align 8, !tbaa !8
  %47 = getelementptr inbounds %struct.pointf_s, ptr %46, i64 2
  %48 = getelementptr inbounds nuw %struct.pointf_s, ptr %47, i32 0, i32 1
  store double %45, ptr %48, align 8, !tbaa !23
  %49 = load ptr, ptr %3, align 8, !tbaa !8
  %50 = getelementptr inbounds %struct.pointf_s, ptr %49, i64 3
  %51 = getelementptr inbounds nuw %struct.pointf_s, ptr %50, i32 0, i32 0
  store double 0.000000e+00, ptr %51, align 8, !tbaa !21
  %52 = load double, ptr %6, align 8, !tbaa !17
  %53 = load ptr, ptr %3, align 8, !tbaa !8
  %54 = getelementptr inbounds %struct.pointf_s, ptr %53, i64 3
  %55 = getelementptr inbounds nuw %struct.pointf_s, ptr %54, i32 0, i32 1
  store double %52, ptr %55, align 8, !tbaa !23
  %56 = load double, ptr %5, align 8, !tbaa !17
  %57 = fmul double -5.517840e-01, %56
  %58 = load ptr, ptr %3, align 8, !tbaa !8
  %59 = getelementptr inbounds %struct.pointf_s, ptr %58, i64 4
  %60 = getelementptr inbounds nuw %struct.pointf_s, ptr %59, i32 0, i32 0
  store double %57, ptr %60, align 8, !tbaa !21
  %61 = load double, ptr %6, align 8, !tbaa !17
  %62 = load ptr, ptr %3, align 8, !tbaa !8
  %63 = getelementptr inbounds %struct.pointf_s, ptr %62, i64 4
  %64 = getelementptr inbounds nuw %struct.pointf_s, ptr %63, i32 0, i32 1
  store double %61, ptr %64, align 8, !tbaa !23
  %65 = load double, ptr %5, align 8, !tbaa !17
  %66 = fneg double %65
  %67 = load ptr, ptr %3, align 8, !tbaa !8
  %68 = getelementptr inbounds %struct.pointf_s, ptr %67, i64 5
  %69 = getelementptr inbounds nuw %struct.pointf_s, ptr %68, i32 0, i32 0
  store double %66, ptr %69, align 8, !tbaa !21
  %70 = load ptr, ptr %3, align 8, !tbaa !8
  %71 = getelementptr inbounds %struct.pointf_s, ptr %70, i64 1
  %72 = getelementptr inbounds nuw %struct.pointf_s, ptr %71, i32 0, i32 1
  %73 = load double, ptr %72, align 8, !tbaa !23
  %74 = load ptr, ptr %3, align 8, !tbaa !8
  %75 = getelementptr inbounds %struct.pointf_s, ptr %74, i64 5
  %76 = getelementptr inbounds nuw %struct.pointf_s, ptr %75, i32 0, i32 1
  store double %73, ptr %76, align 8, !tbaa !23
  %77 = load double, ptr %5, align 8, !tbaa !17
  %78 = fneg double %77
  %79 = load ptr, ptr %3, align 8, !tbaa !8
  %80 = getelementptr inbounds %struct.pointf_s, ptr %79, i64 6
  %81 = getelementptr inbounds nuw %struct.pointf_s, ptr %80, i32 0, i32 0
  store double %78, ptr %81, align 8, !tbaa !21
  %82 = load double, ptr %6, align 8, !tbaa !17
  %83 = load double, ptr %7, align 8, !tbaa !17
  %84 = fsub double %82, %83
  %85 = load ptr, ptr %3, align 8, !tbaa !8
  %86 = getelementptr inbounds %struct.pointf_s, ptr %85, i64 6
  %87 = getelementptr inbounds nuw %struct.pointf_s, ptr %86, i32 0, i32 1
  store double %84, ptr %87, align 8, !tbaa !23
  %88 = load ptr, ptr %3, align 8, !tbaa !8
  %89 = getelementptr inbounds %struct.pointf_s, ptr %88, i64 7
  %90 = load ptr, ptr %3, align 8, !tbaa !8
  %91 = getelementptr inbounds %struct.pointf_s, ptr %90, i64 6
  call void @llvm.memcpy.p0.p0.i64(ptr align 8 %89, ptr align 8 %91, i64 16, i1 false), !tbaa.struct !16
  %92 = load double, ptr %5, align 8, !tbaa !17
  %93 = fneg double %92
  %94 = load ptr, ptr %3, align 8, !tbaa !8
  %95 = getelementptr inbounds %struct.pointf_s, ptr %94, i64 8
  %96 = getelementptr inbounds nuw %struct.pointf_s, ptr %95, i32 0, i32 0
  store double %93, ptr %96, align 8, !tbaa !21
  %97 = load double, ptr %7, align 8, !tbaa !17
  %98 = load double, ptr %6, align 8, !tbaa !17
  %99 = fsub double %97, %98
  %100 = load ptr, ptr %3, align 8, !tbaa !8
  %101 = getelementptr inbounds %struct.pointf_s, ptr %100, i64 8
  %102 = getelementptr inbounds nuw %struct.pointf_s, ptr %101, i32 0, i32 1
  store double %99, ptr %102, align 8, !tbaa !23
  %103 = load ptr, ptr %3, align 8, !tbaa !8
  %104 = getelementptr inbounds %struct.pointf_s, ptr %103, i64 9
  %105 = load ptr, ptr %3, align 8, !tbaa !8
  %106 = getelementptr inbounds %struct.pointf_s, ptr %105, i64 8
  call void @llvm.memcpy.p0.p0.i64(ptr align 8 %104, ptr align 8 %106, i64 16, i1 false), !tbaa.struct !16
  %107 = load double, ptr %5, align 8, !tbaa !17
  %108 = fneg double %107
  %109 = load ptr, ptr %3, align 8, !tbaa !8
  %110 = getelementptr inbounds %struct.pointf_s, ptr %109, i64 10
  %111 = getelementptr inbounds nuw %struct.pointf_s, ptr %110, i32 0, i32 0
  store double %108, ptr %111, align 8, !tbaa !21
  %112 = load ptr, ptr %3, align 8, !tbaa !8
  %113 = getelementptr inbounds %struct.pointf_s, ptr %112, i64 1
  %114 = getelementptr inbounds nuw %struct.pointf_s, ptr %113, i32 0, i32 1
  %115 = load double, ptr %114, align 8, !tbaa !23
  %116 = fneg double %115
  %117 = load ptr, ptr %3, align 8, !tbaa !8
  %118 = getelementptr inbounds %struct.pointf_s, ptr %117, i64 10
  %119 = getelementptr inbounds nuw %struct.pointf_s, ptr %118, i32 0, i32 1
  store double %116, ptr %119, align 8, !tbaa !23
  %120 = load ptr, ptr %3, align 8, !tbaa !8
  %121 = getelementptr inbounds %struct.pointf_s, ptr %120, i64 4
  %122 = getelementptr inbounds nuw %struct.pointf_s, ptr %121, i32 0, i32 0
  %123 = load double, ptr %122, align 8, !tbaa !21
  %124 = load ptr, ptr %3, align 8, !tbaa !8
  %125 = getelementptr inbounds %struct.pointf_s, ptr %124, i64 11
  %126 = getelementptr inbounds nuw %struct.pointf_s, ptr %125, i32 0, i32 0
  store double %123, ptr %126, align 8, !tbaa !21
  %127 = load ptr, ptr %3, align 8, !tbaa !8
  %128 = getelementptr inbounds %struct.pointf_s, ptr %127, i64 4
  %129 = getelementptr inbounds nuw %struct.pointf_s, ptr %128, i32 0, i32 1
  %130 = load double, ptr %129, align 8, !tbaa !23
  %131 = fneg double %130
  %132 = load ptr, ptr %3, align 8, !tbaa !8
  %133 = getelementptr inbounds %struct.pointf_s, ptr %132, i64 11
  %134 = getelementptr inbounds nuw %struct.pointf_s, ptr %133, i32 0, i32 1
  store double %131, ptr %134, align 8, !tbaa !23
  %135 = load ptr, ptr %3, align 8, !tbaa !8
  %136 = getelementptr inbounds %struct.pointf_s, ptr %135, i64 3
  %137 = getelementptr inbounds nuw %struct.pointf_s, ptr %136, i32 0, i32 0
  %138 = load double, ptr %137, align 8, !tbaa !21
  %139 = load ptr, ptr %3, align 8, !tbaa !8
  %140 = getelementptr inbounds %struct.pointf_s, ptr %139, i64 12
  %141 = getelementptr inbounds nuw %struct.pointf_s, ptr %140, i32 0, i32 0
  store double %138, ptr %141, align 8, !tbaa !21
  %142 = load ptr, ptr %3, align 8, !tbaa !8
  %143 = getelementptr inbounds %struct.pointf_s, ptr %142, i64 3
  %144 = getelementptr inbounds nuw %struct.pointf_s, ptr %143, i32 0, i32 1
  %145 = load double, ptr %144, align 8, !tbaa !23
  %146 = fneg double %145
  %147 = load ptr, ptr %3, align 8, !tbaa !8
  %148 = getelementptr inbounds %struct.pointf_s, ptr %147, i64 12
  %149 = getelementptr inbounds nuw %struct.pointf_s, ptr %148, i32 0, i32 1
  store double %146, ptr %149, align 8, !tbaa !23
  %150 = load ptr, ptr %3, align 8, !tbaa !8
  %151 = getelementptr inbounds %struct.pointf_s, ptr %150, i64 2
  %152 = getelementptr inbounds nuw %struct.pointf_s, ptr %151, i32 0, i32 0
  %153 = load double, ptr %152, align 8, !tbaa !21
  %154 = load ptr, ptr %3, align 8, !tbaa !8
  %155 = getelementptr inbounds %struct.pointf_s, ptr %154, i64 13
  %156 = getelementptr inbounds nuw %struct.pointf_s, ptr %155, i32 0, i32 0
  store double %153, ptr %156, align 8, !tbaa !21
  %157 = load ptr, ptr %3, align 8, !tbaa !8
  %158 = getelementptr inbounds %struct.pointf_s, ptr %157, i64 2
  %159 = getelementptr inbounds nuw %struct.pointf_s, ptr %158, i32 0, i32 1
  %160 = load double, ptr %159, align 8, !tbaa !23
  %161 = fneg double %160
  %162 = load ptr, ptr %3, align 8, !tbaa !8
  %163 = getelementptr inbounds %struct.pointf_s, ptr %162, i64 13
  %164 = getelementptr inbounds nuw %struct.pointf_s, ptr %163, i32 0, i32 1
  store double %161, ptr %164, align 8, !tbaa !23
  %165 = load ptr, ptr %3, align 8, !tbaa !8
  %166 = getelementptr inbounds %struct.pointf_s, ptr %165, i64 1
  %167 = getelementptr inbounds nuw %struct.pointf_s, ptr %166, i32 0, i32 0
  %168 = load double, ptr %167, align 8, !tbaa !21
  %169 = load ptr, ptr %3, align 8, !tbaa !8
  %170 = getelementptr inbounds %struct.pointf_s, ptr %169, i64 14
  %171 = getelementptr inbounds nuw %struct.pointf_s, ptr %170, i32 0, i32 0
  store double %168, ptr %171, align 8, !tbaa !21
  %172 = load ptr, ptr %3, align 8, !tbaa !8
  %173 = getelementptr inbounds %struct.pointf_s, ptr %172, i64 1
  %174 = getelementptr inbounds nuw %struct.pointf_s, ptr %173, i32 0, i32 1
  %175 = load double, ptr %174, align 8, !tbaa !23
  %176 = fneg double %175
  %177 = load ptr, ptr %3, align 8, !tbaa !8
  %178 = getelementptr inbounds %struct.pointf_s, ptr %177, i64 14
  %179 = getelementptr inbounds nuw %struct.pointf_s, ptr %178, i32 0, i32 1
  store double %176, ptr %179, align 8, !tbaa !23
  %180 = load ptr, ptr %3, align 8, !tbaa !8
  %181 = getelementptr inbounds %struct.pointf_s, ptr %180, i64 0
  %182 = getelementptr inbounds nuw %struct.pointf_s, ptr %181, i32 0, i32 0
  %183 = load double, ptr %182, align 8, !tbaa !21
  %184 = load ptr, ptr %3, align 8, !tbaa !8
  %185 = getelementptr inbounds %struct.pointf_s, ptr %184, i64 15
  %186 = getelementptr inbounds nuw %struct.pointf_s, ptr %185, i32 0, i32 0
  store double %183, ptr %186, align 8, !tbaa !21
  %187 = load ptr, ptr %3, align 8, !tbaa !8
  %188 = getelementptr inbounds %struct.pointf_s, ptr %187, i64 0
  %189 = getelementptr inbounds nuw %struct.pointf_s, ptr %188, i32 0, i32 1
  %190 = load double, ptr %189, align 8, !tbaa !23
  %191 = fneg double %190
  %192 = load ptr, ptr %3, align 8, !tbaa !8
  %193 = getelementptr inbounds %struct.pointf_s, ptr %192, i64 15
  %194 = getelementptr inbounds nuw %struct.pointf_s, ptr %193, i32 0, i32 1
  store double %191, ptr %194, align 8, !tbaa !23
  %195 = load ptr, ptr %3, align 8, !tbaa !8
  %196 = getelementptr inbounds %struct.pointf_s, ptr %195, i64 16
  %197 = load ptr, ptr %3, align 8, !tbaa !8
  %198 = getelementptr inbounds %struct.pointf_s, ptr %197, i64 15
  call void @llvm.memcpy.p0.p0.i64(ptr align 8 %196, ptr align 8 %198, i64 16, i1 false), !tbaa.struct !16
  %199 = load ptr, ptr %3, align 8, !tbaa !8
  %200 = getelementptr inbounds %struct.pointf_s, ptr %199, i64 18
  %201 = load ptr, ptr %3, align 8, !tbaa !8
  %202 = getelementptr inbounds %struct.pointf_s, ptr %201, i64 17
  %203 = load ptr, ptr %3, align 8, !tbaa !8
  %204 = getelementptr inbounds %struct.pointf_s, ptr %203, i64 0
  call void @llvm.memcpy.p0.p0.i64(ptr align 8 %202, ptr align 8 %204, i64 16, i1 false), !tbaa.struct !16
  call void @llvm.memcpy.p0.p0.i64(ptr align 8 %200, ptr align 8 %202, i64 16, i1 false), !tbaa.struct !16
  call void @llvm.lifetime.end.p0(i64 8, ptr %7) #13
  call void @llvm.lifetime.end.p0(i64 8, ptr %6) #13
  call void @llvm.lifetime.end.p0(i64 8, ptr %5) #13
  ret void
}