; Function Attrs: mustprogress nofree norecurse nosync nounwind willreturn memory(argmem: readwrite) uwtable
define internal void @cylinder_vertices(ptr noundef captures(none) initializes((0, 112)) %0, ptr noundef readonly captures(none) %1) #22 {
  %3 = load double, ptr %1, align 8, !tbaa !16
  %4 = fmul double %3, 5.000000e-01
  %5 = getelementptr inbounds nuw i8, ptr %1, i64 8
  %6 = load double, ptr %5, align 8, !tbaa !14
  %7 = fmul double %6, 5.000000e-01
  %8 = fdiv double %6, 1.100000e+01
  store double %4, ptr %0, align 8, !tbaa !16
  %9 = fsub double %7, %8
  %10 = getelementptr inbounds nuw i8, ptr %0, i64 8
  store double %9, ptr %10, align 8, !tbaa !14
  %11 = getelementptr inbounds nuw i8, ptr %0, i64 16
  store double %4, ptr %11, align 8, !tbaa !16
  %12 = tail call double @llvm.fmuladd.f64(double %8, double 0xBFDCAF922962CFD8, double %7)
  %13 = getelementptr inbounds nuw i8, ptr %0, i64 24
  store double %12, ptr %13, align 8, !tbaa !14
  %14 = fmul double %4, 5.517840e-01
  %15 = getelementptr inbounds nuw i8, ptr %0, i64 32
  store double %14, ptr %15, align 8, !tbaa !16
  %16 = getelementptr inbounds nuw i8, ptr %0, i64 40
  store double %7, ptr %16, align 8, !tbaa !14
  %17 = getelementptr inbounds nuw i8, ptr %0, i64 48
  store double 0.000000e+00, ptr %17, align 8, !tbaa !16
  %18 = getelementptr inbounds nuw i8, ptr %0, i64 56
  store double %7, ptr %18, align 8, !tbaa !14
  %19 = fmul double %4, -5.517840e-01
  %20 = getelementptr inbounds nuw i8, ptr %0, i64 64
  store double %19, ptr %20, align 8, !tbaa !16
  %21 = getelementptr inbounds nuw i8, ptr %0, i64 72
  store double %7, ptr %21, align 8, !tbaa !14
  %22 = fneg double %4
  %23 = getelementptr inbounds nuw i8, ptr %0, i64 80
  store double %22, ptr %23, align 8, !tbaa !16
  %24 = getelementptr inbounds nuw i8, ptr %0, i64 88
  store double %12, ptr %24, align 8, !tbaa !14
  %25 = getelementptr inbounds nuw i8, ptr %0, i64 96
  store double %22, ptr %25, align 8, !tbaa !16
  %26 = getelementptr inbounds nuw i8, ptr %0, i64 104
  store double %9, ptr %26, align 8, !tbaa !14
  %27 = getelementptr inbounds nuw i8, ptr %0, i64 112
  tail call void @llvm.memcpy.p0.p0.i64(ptr noundef nonnull align 8 dereferenceable(16) %27, ptr noundef nonnull align 8 dereferenceable(16) %25, i64 16, i1 false), !tbaa.struct !3
  %28 = getelementptr inbounds nuw i8, ptr %0, i64 128
  store double %22, ptr %28, align 8, !tbaa !16
  %29 = fsub double %8, %7
  %30 = getelementptr inbounds nuw i8, ptr %0, i64 136
  store double %29, ptr %30, align 8, !tbaa !14
  %31 = getelementptr inbounds nuw i8, ptr %0, i64 144
  tail call void @llvm.memcpy.p0.p0.i64(ptr noundef nonnull align 8 dereferenceable(16) %31, ptr noundef nonnull align 8 dereferenceable(16) %28, i64 16, i1 false), !tbaa.struct !3
  %32 = getelementptr inbounds nuw i8, ptr %0, i64 160
  store double %22, ptr %32, align 8, !tbaa !16
  %33 = fneg double %12
  %34 = getelementptr inbounds nuw i8, ptr %0, i64 168
  store double %33, ptr %34, align 8, !tbaa !14
  %35 = getelementptr inbounds nuw i8, ptr %0, i64 176
  store double %19, ptr %35, align 8, !tbaa !16
  %36 = fneg double %7
  %37 = getelementptr inbounds nuw i8, ptr %0, i64 184
  store double %36, ptr %37, align 8, !tbaa !14
  %38 = getelementptr inbounds nuw i8, ptr %0, i64 192
  store double 0.000000e+00, ptr %38, align 8, !tbaa !16
  %39 = getelementptr inbounds nuw i8, ptr %0, i64 200
  store double %36, ptr %39, align 8, !tbaa !14
  %40 = getelementptr inbounds nuw i8, ptr %0, i64 208
  store double %14, ptr %40, align 8, !tbaa !16
  %41 = getelementptr inbounds nuw i8, ptr %0, i64 216
  store double %36, ptr %41, align 8, !tbaa !14
  %42 = getelementptr inbounds nuw i8, ptr %0, i64 224
  store double %4, ptr %42, align 8, !tbaa !16
  %43 = getelementptr inbounds nuw i8, ptr %0, i64 232
  store double %33, ptr %43, align 8, !tbaa !14
  %44 = getelementptr inbounds nuw i8, ptr %0, i64 240
  store double %4, ptr %44, align 8, !tbaa !16
  %45 = fneg double %9
  %46 = getelementptr inbounds nuw i8, ptr %0, i64 248
  store double %45, ptr %46, align 8, !tbaa !14
  %47 = getelementptr inbounds nuw i8, ptr %0, i64 256
  tail call void @llvm.memcpy.p0.p0.i64(ptr noundef nonnull align 8 dereferenceable(16) %47, ptr noundef nonnull align 8 dereferenceable(16) %44, i64 16, i1 false), !tbaa.struct !3
  %48 = getelementptr inbounds nuw i8, ptr %0, i64 288
  %49 = getelementptr inbounds nuw i8, ptr %0, i64 272
  tail call void @llvm.memcpy.p0.p0.i64(ptr noundef nonnull align 8 dereferenceable(16) %49, ptr noundef nonnull align 8 dereferenceable(16) %0, i64 16, i1 false), !tbaa.struct !3
  tail call void @llvm.memcpy.p0.p0.i64(ptr noundef nonnull align 8 dereferenceable(16) %48, ptr noundef nonnull align 8 dereferenceable(16) %0, i64 16, i1 false)
  ret void
}